target datalayout = "e-m:e-p270:32:32-p271:32:32-p272:64:64-i64:64-i128:128-f80:128-n8:16:32:64-S128"
target triple = "x86_64-unknown-linux-gnu"

%struct.emitter_s = type { i32, ptr, ptr, i32, i8, i8 }
%struct.emitter_row_s = type { %struct.anon.1 }
%struct.anon.1 = type { ptr }
%struct.emitter_col_s = type { i32, i32, i32, %union.anon, %struct.anon.2 }
%union.anon = type { i64 }
%struct.anon.2 = type { ptr, ptr }

@.str.33 = private unnamed_addr constant [2 x i8] c"\0A\00", align 1
@.str.274 = private unnamed_addr constant [8 x i8] c"num_ops\00", align 1
@.str.275 = private unnamed_addr constant [9 x i8] c"num_wait\00", align 1
@.str.276 = private unnamed_addr constant [13 x i8] c"num_spin_acq\00", align 1
@.str.277 = private unnamed_addr constant [17 x i8] c"num_owner_switch\00", align 1
@.str.278 = private unnamed_addr constant [16 x i8] c"total_wait_time\00", align 1
@.str.279 = private unnamed_addr constant [14 x i8] c"max_wait_time\00", align 1
@.str.280 = private unnamed_addr constant [13 x i8] c"max_num_thds\00", align 1

; Function Attrs: nounwind uwtable
define internal void @emitter_json_kv(ptr noundef %emitter, ptr noundef %json_key, i32 noundef %value_type, ptr noundef %value) #0 {
entry:
  %emitter.addr = alloca ptr, align 8
  %json_key.addr = alloca ptr, align 8
  %value_type.addr = alloca i32, align 4
  %value.addr = alloca ptr, align 8
  store ptr %emitter, ptr %emitter.addr, align 8
  store ptr %json_key, ptr %json_key.addr, align 8
  store i32 %value_type, ptr %value_type.addr, align 4
  store ptr %value, ptr %value.addr, align 8
  %0 = load ptr, ptr %emitter.addr, align 8
  %1 = load ptr, ptr %json_key.addr, align 8
  call void @emitter_json_key(ptr noundef %0, ptr noundef %1)
  %2 = load ptr, ptr %emitter.addr, align 8
  %3 = load i32, ptr %value_type.addr, align 4
  %4 = load ptr, ptr %value.addr, align 8
  call void @emitter_json_value(ptr noundef %2, i32 noundef %3, ptr noundef %4)
  ret void
}

; Function Attrs: nounwind uwtable
define internal void @emitter_table_row(ptr noundef %emitter, ptr noundef %row) #0 {
entry:
  %emitter.addr = alloca ptr, align 8
  %row.addr = alloca ptr, align 8
  %col = alloca ptr, align 8
  store ptr %emitter, ptr %emitter.addr, align 8
  store ptr %row, ptr %row.addr, align 8
  %0 = load ptr, ptr %emitter.addr, align 8
  %output = getelementptr inbounds %struct.emitter_s, ptr %0, i32 0, i32 0
  %1 = load i32, ptr %output, align 8
  %cmp = icmp ne i32 %1, 2
  br i1 %cmp, label %if.then, label %if.end

if.then:                                          ; preds = %entry
  br label %return

if.end:                                           ; preds = %entry
  %2 = load ptr, ptr %row.addr, align 8
  %cols = getelementptr inbounds %struct.emitter_row_s, ptr %2, i32 0, i32 0
  %qlh_first = getelementptr inbounds %struct.anon.1, ptr %cols, i32 0, i32 0
  %3 = load ptr, ptr %qlh_first, align 8
  store ptr %3, ptr %col, align 8
  br label %for.cond

for.cond:                                         ; preds = %cond.end, %if.end
  %4 = load ptr, ptr %col, align 8
  %cmp1 = icmp ne ptr %4, null
  br i1 %cmp1, label %for.body, label %for.end

for.body:                                         ; preds = %for.cond
  %5 = load ptr, ptr %emitter.addr, align 8
  %6 = load ptr, ptr %col, align 8
  %justify = getelementptr inbounds %struct.emitter_col_s, ptr %6, i32 0, i32 0
  %7 = load i32, ptr %justify, align 8
  %8 = load ptr, ptr %col, align 8
  %width = getelementptr inbounds %struct.emitter_col_s, ptr %8, i32 0, i32 1
  %9 = load i32, ptr %width, align 4
  %10 = load ptr, ptr %col, align 8
  %type = getelementptr inbounds %struct.emitter_col_s, ptr %10, i32 0, i32 2
  %11 = load i32, ptr %type, align 8
  %12 = load ptr, ptr %col, align 8
  %13 = getelementptr inbounds %struct.emitter_col_s, ptr %12, i32 0, i32 3
  call void @emitter_print_value(ptr noundef %5, i32 noundef %7, i32 noundef %9, i32 noundef %11, ptr noundef %13)
  br label %for.inc

for.inc:                                          ; preds = %for.body
  %14 = load ptr, ptr %col, align 8
  %link = getelementptr inbounds %struct.emitter_col_s, ptr %14, i32 0, i32 4
  %qre_next = getelementptr inbounds %struct.anon.2, ptr %link, i32 0, i32 0
  %15 = load ptr, ptr %qre_next, align 8
  %16 = load ptr, ptr %row.addr, align 8
  %cols2 = getelementptr inbounds %struct.emitter_row_s, ptr %16, i32 0, i32 0
  %qlh_first3 = getelementptr inbounds %struct.anon.1, ptr %cols2, i32 0, i32 0
  %17 = load ptr, ptr %qlh_first3, align 8
  %cmp4 = icmp ne ptr %15, %17
  br i1 %cmp4, label %cond.true, label %cond.false

cond.true:                                        ; preds = %for.inc
  %18 = load ptr, ptr %col, align 8
  %link5 = getelementptr inbounds %struct.emitter_col_s, ptr %18, i32 0, i32 4
  %qre_next6 = getelementptr inbounds %struct.anon.2, ptr %link5, i32 0, i32 0
  %19 = load ptr, ptr %qre_next6, align 8
  br label %cond.end

cond.false:                                       ; preds = %for.inc
  br label %cond.end

cond.end:                                         ; preds = %cond.false, %cond.true
  %cond = phi ptr [ %19, %cond.true ], [ null, %cond.false ]
  store ptr %cond, ptr %col, align 8
  br label %for.cond, !llvm.loop !13

for.end:                                          ; preds = %for.cond
  %20 = load ptr, ptr %emitter.addr, align 8
  call void (ptr, ptr, ...) @emitter_table_printf(ptr noundef %20, ptr noundef @.str.33)
  br label %return

return:                                           ; preds = %for.end, %if.then
  ret void
}

; Function Attrs: nounwind uwtable
define internal void @mutex_stats_emit(ptr noundef %emitter, ptr noundef %row, ptr noundef %col_uint64_t, ptr noundef %col_uint32_t) #0 {
entry:
  %emitter.addr = alloca ptr, align 8
  %row.addr = alloca ptr, align 8
  %col_uint64_t.addr = alloca ptr, align 8
  %col_uint32_t.addr = alloca ptr, align 8
  %k_uint64_t = alloca i32, align 4
  %k_uint32_t = alloca i32, align 4
  %col = alloca ptr, align 8
  store ptr %emitter, ptr %emitter.addr, align 8
  store ptr %row, ptr %row.addr, align 8
  store ptr %col_uint64_t, ptr %col_uint64_t.addr, align 8
  store ptr %col_uint32_t, ptr %col_uint32_t.addr, align 8
  %0 = load ptr, ptr %row.addr, align 8
  %cmp = icmp ne ptr %0, null
  br i1 %cmp, label %if.then, label %if.end

if.then:                                          ; preds = %entry
  %1 = load ptr, ptr %emitter.addr, align 8
  %2 = load ptr, ptr %row.addr, align 8
  call void @emitter_table_row(ptr noundef %1, ptr noundef %2)
  br label %if.end

if.end:                                           ; preds = %if.then, %entry
  store i32 0, ptr %k_uint64_t, align 4
  store i32 0, ptr %k_uint32_t, align 4
  %3 = load ptr, ptr %col_uint64_t.addr, align 8
  %4 = load i32, ptr %k_uint64_t, align 4
  %idxprom = zext i32 %4 to i64
  %arrayidx = getelementptr inbounds %struct.emitter_col_s, ptr %3, i64 %idxprom
  store ptr %arrayidx, ptr %col, align 8
  %5 = load i32, ptr %k_uint64_t, align 4
  %inc = add i32 %5, 1
  store i32 %inc, ptr %k_uint64_t, align 4
  %6 = load ptr, ptr %emitter.addr, align 8
  %7 = load ptr, ptr %col, align 8
  %8 = getelementptr inbounds %struct.emitter_col_s, ptr %7, i32 0, i32 3
  call void @emitter_json_kv(ptr noundef %6, ptr noundef @.str.274, i32 noundef 5, ptr noundef %8)
  %9 = load ptr, ptr %col_uint64_t.addr, align 8
  %10 = load i32, ptr %k_uint64_t, align 4
  %idxprom1 = zext i32 %10 to i64
  %arrayidx2 = getelementptr inbounds %struct.emitter_col_s, ptr %9, i64 %idxprom1
  store ptr %arrayidx2, ptr %col, align 8
  %11 = load i32, ptr %k_uint64_t, align 4
  %inc3 = add i32 %11, 1
  store i32 %inc3, ptr %k_uint64_t, align 4
  %12 = load ptr, ptr %emitter.addr, align 8
  %13 = load ptr, ptr %col, align 8
  %14 = getelementptr inbounds %struct.emitter_col_s, ptr %13, i32 0, i32 3
  call void @emitter_json_kv(ptr noundef %12, ptr noundef @.str.275, i32 noundef 5, ptr noundef %14)
  %15 = load ptr, ptr %col_uint64_t.addr, align 8
  %16 = load i32, ptr %k_uint64_t, align 4
  %idxprom4 = zext i32 %16 to i64
  %arrayidx5 = getelementptr inbounds %struct.emitter_col_s, ptr %15, i64 %idxprom4
  store ptr %arrayidx5, ptr %col, align 8
  %17 = load i32, ptr %k_uint64_t, align 4
  %inc6 = add i32 %17, 1
  store i32 %inc6, ptr %k_uint64_t, align 4
  %18 = load ptr, ptr %emitter.addr, align 8
  %19 = load ptr, ptr %col, align 8
  %20 = getelementptr inbounds %struct.emitter_col_s, ptr %19, i32 0, i32 3
  call void @emitter_json_kv(ptr noundef %18, ptr noundef @.str.276, i32 noundef 5, ptr noundef %20)
  %21 = load ptr, ptr %col_uint64_t.addr, align 8
  %22 = load i32, ptr %k_uint64_t, align 4
  %idxprom7 = zext i32 %22 to i64
  %arrayidx8 = getelementptr inbounds %struct.emitter_col_s, ptr %21, i64 %idxprom7
  store ptr %arrayidx8, ptr %col, align 8
  %23 = load i32, ptr %k_uint64_t, align 4
  %inc9 = add i32 %23, 1
  store i32 %inc9, ptr %k_uint64_t, align 4
  %24 = load ptr, ptr %emitter.addr, align 8
  %25 = load ptr, ptr %col, align 8
  %26 = getelementptr inbounds %struct.emitter_col_s, ptr %25, i32 0, i32 3
  call void @emitter_json_kv(ptr noundef %24, ptr noundef @.str.277, i32 noundef 5, ptr noundef %26)
  %27 = load ptr, ptr %col_uint64_t.addr, align 8
  %28 = load i32, ptr %k_uint64_t, align 4
  %idxprom10 = zext i32 %28 to i64
  %arrayidx11 = getelementptr inbounds %struct.emitter_col_s, ptr %27, i64 %idxprom10
  store ptr %arrayidx11, ptr %col, align 8
  %29 = load i32, ptr %k_uint64_t, align 4
  %inc12 = add i32 %29, 1
  store i32 %inc12, ptr %k_uint64_t, align 4
  %30 = load ptr, ptr %emitter.addr, align 8
  %31 = load ptr, ptr %col, align 8
  %32 = getelementptr inbounds %struct.emitter_col_s, ptr %31, i32 0, i32 3
  call void @emitter_json_kv(ptr noundef %30, ptr noundef @.str.278, i32 noundef 5, ptr noundef %32)
  %33 = load ptr, ptr %col_uint64_t.addr, align 8
  %34 = load i32, ptr %k_uint64_t, align 4
  %idxprom13 = zext i32 %34 to i64
  %arrayidx14 = getelementptr inbounds %struct.emitter_col_s, ptr %33, i64 %idxprom13
  store ptr %arrayidx14, ptr %col, align 8
  %35 = load i32, ptr %k_uint64_t, align 4
  %inc15 = add i32 %35, 1
  store i32 %inc15, ptr %k_uint64_t, align 4
  %36 = load ptr, ptr %emitter.addr, align 8
  %37 = load ptr, ptr %col, align 8
  %38 = getelementptr inbounds %struct.emitter_col_s, ptr %37, i32 0, i32 3
  call void @emitter_json_kv(ptr noundef %36, ptr noundef @.str.279, i32 noundef 5, ptr noundef %38)
  %39 = load ptr, ptr %col_uint32_t.addr, align 8
  %40 = load i32, ptr %k_uint32_t, align 4
  %idxprom16 = zext i32 %40 to i64
  %arrayidx17 = getelementptr inbounds %struct.emitter_col_s, ptr %39, i64 %idxprom16
  store ptr %arrayidx17, ptr %col, align 8
  %41 = load i32, ptr %k_uint32_t, align 4
  %inc18 = add i32 %41, 1
  store i32 %inc18, ptr %k_uint32_t, align 4
  %42 = load ptr, ptr %emitter.addr, align 8
  %43 = load ptr, ptr %col, align 8
  %44 = getelementptr inbounds %struct.emitter_col_s, ptr %43, i32 0, i32 3
  call void @emitter_json_kv(ptr noundef %42, ptr noundef @.str.280, i32 noundef 4, ptr noundef %44)
  ret void
}