; Function Attrs: nounwind uwtable
define internal fastcc void @mutex_stats_emit(ptr nocapture noundef %emitter, ptr noundef readonly %row, ptr nocapture noundef readonly %col_uint64_t, ptr nocapture noundef readonly %col_uint32_t) unnamed_addr #0 {
entry:
  %cmp.not = icmp eq ptr %row, null
  br i1 %cmp.not, label %if.end, label %if.then

if.then:                                          ; preds = %entry
  %0 = load i32, ptr %emitter, align 8
  %cmp.not.i = icmp eq i32 %0, 2
  br i1 %cmp.not.i, label %if.end.i, label %if.end

if.end.i:                                         ; preds = %if.then
  %1 = load ptr, ptr %row, align 8
  %cmp1.not10.i = icmp eq ptr %1, null
  br i1 %cmp1.not10.i, label %for.end.i, label %for.body.i

for.body.i:                                       ; preds = %if.end.i, %for.body.i
  %col.011.i = phi ptr [ %6, %for.body.i ], [ %1, %if.end.i ]
  %2 = load i32, ptr %col.011.i, align 8
  %width.i = getelementptr inbounds i8, ptr %col.011.i, i64 4
  %3 = load i32, ptr %width.i, align 4
  %type.i = getelementptr inbounds i8, ptr %col.011.i, i64 8
  %4 = load i32, ptr %type.i, align 8
  %5 = getelementptr inbounds i8, ptr %col.011.i, i64 16
  tail call fastcc void @emitter_print_value(ptr noundef nonnull %emitter, i32 noundef %2, i32 noundef %3, i32 noundef %4, ptr noundef nonnull %5)
  %link.i = getelementptr inbounds i8, ptr %col.011.i, i64 24
  %6 = load ptr, ptr %link.i, align 8
  %7 = load ptr, ptr %row, align 8
  %cmp4.not.i = icmp eq ptr %6, %7
  %cmp1.not12.i = icmp eq ptr %6, null
  %cmp1.not.i = or i1 %cmp1.not12.i, %cmp4.not.i
  br i1 %cmp1.not.i, label %for.end.i, label %for.body.i

for.end.i:                                        ; preds = %for.body.i, %if.end.i
  tail call void (ptr, ptr, ...) @emitter_table_printf(ptr noundef nonnull %emitter, ptr noundef nonnull @.str.33)
  br label %if.end

if.end:                                           ; preds = %for.end.i, %if.then, %entry
  %8 = getelementptr inbounds i8, ptr %col_uint64_t, i64 16
  tail call fastcc void @emitter_json_key(ptr noundef %emitter, ptr noundef nonnull @.str.274)
  tail call fastcc void @emitter_json_value(ptr noundef %emitter, i32 noundef 5, ptr noundef nonnull %8)
  %9 = getelementptr inbounds i8, ptr %col_uint64_t, i64 56
  tail call fastcc void @emitter_json_key(ptr noundef %emitter, ptr noundef nonnull @.str.275)
  tail call fastcc void @emitter_json_value(ptr noundef %emitter, i32 noundef 5, ptr noundef nonnull %9)
  %10 = getelementptr inbounds i8, ptr %col_uint64_t, i64 96
  tail call fastcc void @emitter_json_key(ptr noundef %emitter, ptr noundef nonnull @.str.276)
  tail call fastcc void @emitter_json_value(ptr noundef %emitter, i32 noundef 5, ptr noundef nonnull %10)
  %11 = getelementptr inbounds i8, ptr %col_uint64_t, i64 136
  tail call fastcc void @emitter_json_key(ptr noundef %emitter, ptr noundef nonnull @.str.277)
  tail call fastcc void @emitter_json_value(ptr noundef %emitter, i32 noundef 5, ptr noundef nonnull %11)
  %12 = getelementptr inbounds i8, ptr %col_uint64_t, i64 176
  tail call fastcc void @emitter_json_key(ptr noundef %emitter, ptr noundef nonnull @.str.278)
  tail call fastcc void @emitter_json_value(ptr noundef %emitter, i32 noundef 5, ptr noundef nonnull %12)
  %13 = getelementptr inbounds i8, ptr %col_uint64_t, i64 216
  tail call fastcc void @emitter_json_key(ptr noundef %emitter, ptr noundef nonnull @.str.279)
  tail call fastcc void @emitter_json_value(ptr noundef %emitter, i32 noundef 5, ptr noundef nonnull %13)
  %14 = getelementptr inbounds i8, ptr %col_uint32_t, i64 16
  tail call fastcc void @emitter_json_key(ptr noundef %emitter, ptr noundef nonnull @.str.280)
  tail call fastcc void @emitter_json_value(ptr noundef %emitter, i32 noundef 4, ptr noundef nonnull %14)
  ret void
}